; Function Attrs: mustprogress nounwind uwtable
define dso_local noundef zeroext i1 @_ZN4node15LibuvStreamWrap7IsAliveEv(ptr noundef nonnull align 8 dereferenceable(160) %this) unnamed_addr #3 align 2 {
entry:
  %vtable.i = load ptr, ptr %this, align 8
  %vfn.i = getelementptr inbounds i8, ptr %vtable.i, i64 64
  %0 = load ptr, ptr %vfn.i, align 8
  %call.i = tail call noundef zeroext i1 %0(ptr noundef nonnull align 8 dereferenceable(56) %this) #17
  %state_.i = getelementptr inbounds i8, ptr %this, i64 56
  %1 = load i32, ptr %state_.i, align 8
  %cmp1.i = icmp ne i32 %1, 2
  %2 = select i1 %call.i, i1 %cmp1.i, i1 false
  ret i1 %2
}